target datalayout = "e-m:e-p270:32:32-p271:32:32-p272:64:64-i64:64-i128:128-f80:128-n8:16:32:64-S128"
target triple = "x86_64-pc-linux-gnu"

%struct._zend_llist = type { ptr, ptr, i64, i64, ptr, i8, ptr }
%struct._zend_llist_element = type { ptr, ptr, [1 x i8] }

; Function Attrs: nounwind uwtable
define void @zend_llist_apply(ptr noundef %0, ptr noundef %1) #0 {
  %3 = alloca ptr, align 8
  %4 = alloca ptr, align 8
  %5 = alloca ptr, align 8
  store ptr %0, ptr %3, align 8
  store ptr %1, ptr %4, align 8
  %6 = load ptr, ptr %3, align 8
  %7 = getelementptr inbounds %struct._zend_llist, ptr %6, i32 0, i32 0
  %8 = load ptr, ptr %7, align 8
  store ptr %8, ptr %5, align 8
  br label %9

9:                                                ; preds = %17, %2
  %10 = load ptr, ptr %5, align 8
  %11 = icmp ne ptr %10, null
  br i1 %11, label %12, label %21

12:                                               ; preds = %9
  %13 = load ptr, ptr %4, align 8
  %14 = load ptr, ptr %5, align 8
  %15 = getelementptr inbounds %struct._zend_llist_element, ptr %14, i32 0, i32 2
  %16 = getelementptr inbounds [1 x i8], ptr %15, i64 0, i64 0
  call void %13(ptr noundef %16)
  br label %17

17:                                               ; preds = %12
  %18 = load ptr, ptr %5, align 8
  %19 = getelementptr inbounds %struct._zend_llist_element, ptr %18, i32 0, i32 0
  %20 = load ptr, ptr %19, align 8
  store ptr %20, ptr %5, align 8
  br label %9

21:                                               ; preds = %9
  ret void
}