; Function Attrs: nounwind uwtable
define void @zend_llist_apply(ptr nocapture noundef readonly %0, ptr nocapture noundef readonly %1) local_unnamed_addr #1 {
  %.05 = load ptr, ptr %0, align 8
  %.not6 = icmp eq ptr %.05, null
  br i1 %.not6, label %._crit_edge, label %.lr.ph

.lr.ph:                                           ; preds = %2, %.lr.ph
  %.07 = phi ptr [ %.0, %.lr.ph ], [ %.05, %2 ]
  %3 = getelementptr inbounds i8, ptr %.07, i64 16
  tail call void %1(ptr noundef nonnull %3) #13
  %.0 = load ptr, ptr %.07, align 8
  %.not = icmp eq ptr %.0, null
  br i1 %.not, label %._crit_edge, label %.lr.ph

._crit_edge:                                      ; preds = %.lr.ph, %2
  ret void
}